; Function Attrs: mustprogress uwtable
define dso_local void @_ZN14cmCacheManager10CacheEntry11SetPropertyERKNSt7__cxx1112basic_stringIcSt11char_traitsIcESaIcEEES8_(ptr noundef nonnull align 8 dereferenceable(97) %0, ptr noundef nonnull align 8 dereferenceable(32) %1, ptr noundef nonnull align 8 dereferenceable(32) %2) local_unnamed_addr #5 align 2 {
  %4 = tail call noundef i32 @_ZNKSt7__cxx1112basic_stringIcSt11char_traitsIcESaIcEE7compareEPKc(ptr noundef nonnull align 8 dereferenceable(32) %1, ptr noundef nonnull @.str.51) #25
  %5 = icmp eq i32 %4, 0
  br i1 %5, label %6, label %9

6:                                                ; preds = %3
  %7 = tail call noundef i32 @_ZN7cmState22StringToCacheEntryTypeERKNSt7__cxx1112basic_stringIcSt11char_traitsIcESaIcEEE(ptr noundef nonnull align 8 dereferenceable(32) %2)
  %8 = getelementptr inbounds nuw i8, ptr %0, i64 32
  store i32 %7, ptr %8, align 8, !tbaa !67
  br label %15

9:                                                ; preds = %3
  %10 = tail call noundef i32 @_ZNKSt7__cxx1112basic_stringIcSt11char_traitsIcESaIcEE7compareEPKc(ptr noundef nonnull align 8 dereferenceable(32) %1, ptr noundef nonnull @.str.52) #25
  %11 = icmp eq i32 %10, 0
  br i1 %11, label %12, label %13

12:                                               ; preds = %9
  tail call void @_ZNSt7__cxx1112basic_stringIcSt11char_traitsIcESaIcEE9_M_assignERKS4_(ptr noundef nonnull align 8 dereferenceable(32) %0, ptr noundef nonnull align 8 dereferenceable(32) %2)
  br label %15

13:                                               ; preds = %9
  %14 = getelementptr inbounds nuw i8, ptr %0, i64 40
  tail call void @_ZN13cmPropertyMap11SetPropertyERKNSt7__cxx1112basic_stringIcSt11char_traitsIcESaIcEEE7cmValue(ptr noundef nonnull align 8 dereferenceable(56) %14, ptr noundef nonnull align 8 dereferenceable(32) %1, ptr nonnull align 8 dereferenceable(32) %2)
  br label %15

15:                                               ; preds = %12, %13, %6
  ret void
}